target datalayout = "e-m:e-p270:32:32-p271:32:32-p272:64:64-i64:64-i128:128-f80:128-n8:16:32:64-S128"
target triple = "x86_64-pc-linux-gnu"

%struct.PutByteContext = type { ptr, ptr, ptr, i32 }

; Function Attrs: alwaysinline nounwind willreturn memory(none) uwtable
define internal zeroext i16 @av_bswap16(i16 noundef zeroext %0) #6 {
  %2 = alloca i16, align 2
  store i16 %0, ptr %2, align 2, !tbaa !55
  %3 = load i16, ptr %2, align 2, !tbaa !55
  %4 = zext i16 %3 to i32
  %5 = ashr i32 %4, 8
  %6 = load i16, ptr %2, align 2, !tbaa !55
  %7 = zext i16 %6 to i32
  %8 = shl i32 %7, 8
  %9 = or i32 %5, %8
  %10 = trunc i32 %9 to i16
  store i16 %10, ptr %2, align 2, !tbaa !55
  %11 = load i16, ptr %2, align 2, !tbaa !55
  ret i16 %11
}

; Function Attrs: alwaysinline nounwind uwtable
define internal void @bytestream2_put_be16(ptr noundef %0, i32 noundef %1) #4 {
  %3 = alloca ptr, align 8
  %4 = alloca i32, align 4
  store ptr %0, ptr %3, align 8, !tbaa !60
  store i32 %1, ptr %4, align 4, !tbaa !38
  %5 = load ptr, ptr %3, align 8, !tbaa !60
  %6 = getelementptr inbounds nuw %struct.PutByteContext, ptr %5, i32 0, i32 3
  %7 = load i32, ptr %6, align 8, !tbaa !64
  %8 = icmp ne i32 %7, 0
  br i1 %8, label %31, label %9

9:                                                ; preds = %2
  %10 = load ptr, ptr %3, align 8, !tbaa !60
  %11 = getelementptr inbounds nuw %struct.PutByteContext, ptr %10, i32 0, i32 1
  %12 = load ptr, ptr %11, align 8, !tbaa !63
  %13 = load ptr, ptr %3, align 8, !tbaa !60
  %14 = getelementptr inbounds nuw %struct.PutByteContext, ptr %13, i32 0, i32 0
  %15 = load ptr, ptr %14, align 8, !tbaa !48
  %16 = ptrtoint ptr %12 to i64
  %17 = ptrtoint ptr %15 to i64
  %18 = sub i64 %16, %17
  %19 = icmp sge i64 %18, 2
  br i1 %19, label %20, label %31

20:                                               ; preds = %9
  %21 = load i32, ptr %4, align 4, !tbaa !38
  %22 = trunc i32 %21 to i16
  %23 = call zeroext i16 @av_bswap16(i16 noundef zeroext %22) #9
  %24 = load ptr, ptr %3, align 8, !tbaa !60
  %25 = getelementptr inbounds nuw %struct.PutByteContext, ptr %24, i32 0, i32 0
  %26 = load ptr, ptr %25, align 8, !tbaa !48
  store i16 %23, ptr %26, align 1, !tbaa !51
  %27 = load ptr, ptr %3, align 8, !tbaa !60
  %28 = getelementptr inbounds nuw %struct.PutByteContext, ptr %27, i32 0, i32 0
  %29 = load ptr, ptr %28, align 8, !tbaa !48
  %30 = getelementptr inbounds i8, ptr %29, i64 2
  store ptr %30, ptr %28, align 8, !tbaa !48
  br label %34

31:                                               ; preds = %9, %2
  %32 = load ptr, ptr %3, align 8, !tbaa !60
  %33 = getelementptr inbounds nuw %struct.PutByteContext, ptr %32, i32 0, i32 3
  store i32 1, ptr %33, align 8, !tbaa !64
  br label %34

34:                                               ; preds = %31, %20
  ret void
}