; Function Attrs: alwaysinline mustprogress nofree norecurse nosync nounwind willreturn memory(write, argmem: readwrite, inaccessiblemem: none) uwtable
define internal void @bytestream2_put_be16(ptr noundef captures(none) %0, i32 noundef %1) unnamed_addr #4 {
  %3 = getelementptr inbounds nuw i8, ptr %0, i64 24
  %4 = load i32, ptr %3, align 8, !tbaa !39
  %.not = icmp eq i32 %4, 0
  br i1 %.not, label %5, label %18

5:                                                ; preds = %2
  %6 = getelementptr inbounds nuw i8, ptr %0, i64 8
  %7 = load ptr, ptr %6, align 8, !tbaa !38
  %8 = load ptr, ptr %0, align 8, !tbaa !35
  %9 = ptrtoint ptr %7 to i64
  %10 = ptrtoint ptr %8 to i64
  %11 = sub i64 %9, %10
  %12 = icmp sgt i64 %11, 1
  br i1 %12, label %13, label %18

13:                                               ; preds = %5
  %14 = trunc i32 %1 to i16
  %15 = tail call i16 @llvm.bswap.i16(i16 %14)
  store i16 %15, ptr %8, align 1, !tbaa !40
  %16 = load ptr, ptr %0, align 8, !tbaa !35
  %17 = getelementptr inbounds nuw i8, ptr %16, i64 2
  store ptr %17, ptr %0, align 8, !tbaa !35
  br label %19

18:                                               ; preds = %5, %2
  store i32 1, ptr %3, align 8, !tbaa !39
  br label %19

19:                                               ; preds = %18, %13
  ret void
}